target datalayout = "e-m:e-p270:32:32-p271:32:32-p272:64:64-i64:64-i128:128-f80:128-n8:16:32:64-S128"
target triple = "x86_64-pc-linux-gnu"

%struct.Codebook = type { i32, i32, ptr, float, float, i8, i8, i8, i8, i32, ptr, ptr, [1024 x i16], ptr, ptr, i32 }

; Function Attrs: nounwind uwtable
define i32 @bit_reverse(i32 noundef %0) #0 {
  %2 = alloca i32, align 4
  store i32 %0, ptr %2, align 4, !tbaa !8
  %3 = load i32, ptr %2, align 4, !tbaa !8
  %4 = and i32 %3, -1431655766
  %5 = lshr i32 %4, 1
  %6 = load i32, ptr %2, align 4, !tbaa !8
  %7 = and i32 %6, 1431655765
  %8 = shl i32 %7, 1
  %9 = or i32 %5, %8
  store i32 %9, ptr %2, align 4, !tbaa !8
  %10 = load i32, ptr %2, align 4, !tbaa !8
  %11 = and i32 %10, -858993460
  %12 = lshr i32 %11, 2
  %13 = load i32, ptr %2, align 4, !tbaa !8
  %14 = and i32 %13, 858993459
  %15 = shl i32 %14, 2
  %16 = or i32 %12, %15
  store i32 %16, ptr %2, align 4, !tbaa !8
  %17 = load i32, ptr %2, align 4, !tbaa !8
  %18 = and i32 %17, -252645136
  %19 = lshr i32 %18, 4
  %20 = load i32, ptr %2, align 4, !tbaa !8
  %21 = and i32 %20, 252645135
  %22 = shl i32 %21, 4
  %23 = or i32 %19, %22
  store i32 %23, ptr %2, align 4, !tbaa !8
  %24 = load i32, ptr %2, align 4, !tbaa !8
  %25 = and i32 %24, -16711936
  %26 = lshr i32 %25, 8
  %27 = load i32, ptr %2, align 4, !tbaa !8
  %28 = and i32 %27, 16711935
  %29 = shl i32 %28, 8
  %30 = or i32 %26, %29
  store i32 %30, ptr %2, align 4, !tbaa !8
  %31 = load i32, ptr %2, align 4, !tbaa !8
  %32 = lshr i32 %31, 16
  %33 = load i32, ptr %2, align 4, !tbaa !8
  %34 = shl i32 %33, 16
  %35 = or i32 %32, %34
  ret i32 %35
}

; Function Attrs: nounwind uwtable
define i32 @include_in_sort(ptr noundef %0, i8 noundef zeroext %1) #0 {
  %3 = alloca i32, align 4
  %4 = alloca ptr, align 8
  %5 = alloca i8, align 1
  store ptr %0, ptr %4, align 8, !tbaa !18
  store i8 %1, ptr %5, align 1, !tbaa !30
  %6 = load ptr, ptr %4, align 8, !tbaa !18
  %7 = getelementptr inbounds nuw %struct.Codebook, ptr %6, i32 0, i32 8
  %8 = load i8, ptr %7, align 1, !tbaa !35
  %9 = icmp ne i8 %8, 0
  br i1 %9, label %10, label %11

10:                                               ; preds = %2
  store i32 1, ptr %3, align 4
  br label %22

11:                                               ; preds = %2
  %12 = load i8, ptr %5, align 1, !tbaa !30
  %13 = zext i8 %12 to i32
  %14 = icmp eq i32 %13, 255
  br i1 %14, label %15, label %16

15:                                               ; preds = %11
  store i32 0, ptr %3, align 4
  br label %22

16:                                               ; preds = %11
  %17 = load i8, ptr %5, align 1, !tbaa !30
  %18 = zext i8 %17 to i32
  %19 = icmp sgt i32 %18, 10
  br i1 %19, label %20, label %21

20:                                               ; preds = %16
  store i32 1, ptr %3, align 4
  br label %22

21:                                               ; preds = %16
  store i32 0, ptr %3, align 4
  br label %22

22:                                               ; preds = %21, %20, %15, %10
  %23 = load i32, ptr %3, align 4
  ret i32 %23
}

; Function Attrs: nounwind uwtable
define void @compute_sorted_huffman(ptr noundef %0, ptr noundef %1, ptr noundef %2) #0 {
  %4 = alloca ptr, align 8
  %5 = alloca ptr, align 8
  %6 = alloca ptr, align 8
  %7 = alloca i32, align 4
  %8 = alloca i32, align 4
  %9 = alloca i32, align 4
  %10 = alloca i32, align 4
  %11 = alloca i32, align 4
  %12 = alloca i32, align 4
  %13 = alloca i32, align 4
  %14 = alloca i32, align 4
  store ptr %0, ptr %4, align 8, !tbaa !18
  store ptr %1, ptr %5, align 8, !tbaa !19
  store ptr %2, ptr %6, align 8, !tbaa !33
  call void @llvm.lifetime.start.p0(i64 4, ptr %7) #11
  call void @llvm.lifetime.start.p0(i64 4, ptr %8) #11
  %15 = load ptr, ptr %4, align 8, !tbaa !18
  %16 = getelementptr inbounds nuw %struct.Codebook, ptr %15, i32 0, i32 8
  %17 = load i8, ptr %16, align 1, !tbaa !35
  %18 = icmp ne i8 %17, 0
  br i1 %18, label %56, label %19

19:                                               ; preds = %3
  call void @llvm.lifetime.start.p0(i64 4, ptr %9) #11
  store i32 0, ptr %9, align 4, !tbaa !8
  store i32 0, ptr %7, align 4, !tbaa !8
  br label %20

20:                                               ; preds = %52, %19
  %21 = load i32, ptr %7, align 4, !tbaa !8
  %22 = load ptr, ptr %4, align 8, !tbaa !18
  %23 = getelementptr inbounds nuw %struct.Codebook, ptr %22, i32 0, i32 1
  %24 = load i32, ptr %23, align 4, !tbaa !49
  %25 = icmp slt i32 %21, %24
  br i1 %25, label %26, label %55

26:                                               ; preds = %20
  %27 = load ptr, ptr %4, align 8, !tbaa !18
  %28 = load ptr, ptr %5, align 8, !tbaa !19
  %29 = load i32, ptr %7, align 4, !tbaa !8
  %30 = sext i32 %29 to i64
  %31 = getelementptr inbounds i8, ptr %28, i64 %30
  %32 = load i8, ptr %31, align 1, !tbaa !30
  %33 = call i32 @include_in_sort(ptr noundef %27, i8 noundef zeroext %32)
  %34 = icmp ne i32 %33, 0
  br i1 %34, label %35, label %51

35:                                               ; preds = %26
  %36 = load ptr, ptr %4, align 8, !tbaa !18
  %37 = getelementptr inbounds nuw %struct.Codebook, ptr %36, i32 0, i32 11
  %38 = load ptr, ptr %37, align 8, !tbaa !38
  %39 = load i32, ptr %7, align 4, !tbaa !8
  %40 = sext i32 %39 to i64
  %41 = getelementptr inbounds i32, ptr %38, i64 %40
  %42 = load i32, ptr %41, align 4, !tbaa !8
  %43 = call i32 @bit_reverse(i32 noundef %42)
  %44 = load ptr, ptr %4, align 8, !tbaa !18
  %45 = getelementptr inbounds nuw %struct.Codebook, ptr %44, i32 0, i32 13
  %46 = load ptr, ptr %45, align 8, !tbaa !50
  %47 = load i32, ptr %9, align 4, !tbaa !8
  %48 = add nsw i32 %47, 1
  store i32 %48, ptr %9, align 4, !tbaa !8
  %49 = sext i32 %47 to i64
  %50 = getelementptr inbounds i32, ptr %46, i64 %49
  store i32 %43, ptr %50, align 4, !tbaa !8
  br label %51

51:                                               ; preds = %35, %26
  br label %52

52:                                               ; preds = %51
  %53 = load i32, ptr %7, align 4, !tbaa !8
  %54 = add nsw i32 %53, 1
  store i32 %54, ptr %7, align 4, !tbaa !8
  br label %20, !llvm.loop !53

55:                                               ; preds = %20
  call void @llvm.lifetime.end.p0(i64 4, ptr %9) #11
  br label %82

56:                                               ; preds = %3
  store i32 0, ptr %7, align 4, !tbaa !8
  br label %57

57:                                               ; preds = %78, %56
  %58 = load i32, ptr %7, align 4, !tbaa !8
  %59 = load ptr, ptr %4, align 8, !tbaa !18
  %60 = getelementptr inbounds nuw %struct.Codebook, ptr %59, i32 0, i32 15
  %61 = load i32, ptr %60, align 8, !tbaa !48
  %62 = icmp slt i32 %58, %61
  br i1 %62, label %63, label %81

63:                                               ; preds = %57
  %64 = load ptr, ptr %4, align 8, !tbaa !18
  %65 = getelementptr inbounds nuw %struct.Codebook, ptr %64, i32 0, i32 11
  %66 = load ptr, ptr %65, align 8, !tbaa !38
  %67 = load i32, ptr %7, align 4, !tbaa !8
  %68 = sext i32 %67 to i64
  %69 = getelementptr inbounds i32, ptr %66, i64 %68
  %70 = load i32, ptr %69, align 4, !tbaa !8
  %71 = call i32 @bit_reverse(i32 noundef %70)
  %72 = load ptr, ptr %4, align 8, !tbaa !18
  %73 = getelementptr inbounds nuw %struct.Codebook, ptr %72, i32 0, i32 13
  %74 = load ptr, ptr %73, align 8, !tbaa !50
  %75 = load i32, ptr %7, align 4, !tbaa !8
  %76 = sext i32 %75 to i64
  %77 = getelementptr inbounds i32, ptr %74, i64 %76
  store i32 %71, ptr %77, align 4, !tbaa !8
  br label %78

78:                                               ; preds = %63
  %79 = load i32, ptr %7, align 4, !tbaa !8
  %80 = add nsw i32 %79, 1
  store i32 %80, ptr %7, align 4, !tbaa !8
  br label %57, !llvm.loop !54

81:                                               ; preds = %57
  br label %82

82:                                               ; preds = %81, %55
  %83 = load ptr, ptr %4, align 8, !tbaa !18
  %84 = getelementptr inbounds nuw %struct.Codebook, ptr %83, i32 0, i32 13
  %85 = load ptr, ptr %84, align 8, !tbaa !50
  %86 = load ptr, ptr %4, align 8, !tbaa !18
  %87 = getelementptr inbounds nuw %struct.Codebook, ptr %86, i32 0, i32 15
  %88 = load i32, ptr %87, align 8, !tbaa !48
  %89 = sext i32 %88 to i64
  call void @qsort(ptr noundef %85, i64 noundef %89, i64 noundef 4, ptr noundef @uint32_compare)
  %90 = load ptr, ptr %4, align 8, !tbaa !18
  %91 = getelementptr inbounds nuw %struct.Codebook, ptr %90, i32 0, i32 13
  %92 = load ptr, ptr %91, align 8, !tbaa !50
  %93 = load ptr, ptr %4, align 8, !tbaa !18
  %94 = getelementptr inbounds nuw %struct.Codebook, ptr %93, i32 0, i32 15
  %95 = load i32, ptr %94, align 8, !tbaa !48
  %96 = sext i32 %95 to i64
  %97 = getelementptr inbounds i32, ptr %92, i64 %96
  store i32 -1, ptr %97, align 4, !tbaa !8
  %98 = load ptr, ptr %4, align 8, !tbaa !18
  %99 = getelementptr inbounds nuw %struct.Codebook, ptr %98, i32 0, i32 8
  %100 = load i8, ptr %99, align 1, !tbaa !35
  %101 = zext i8 %100 to i32
  %102 = icmp ne i32 %101, 0
  br i1 %102, label %103, label %107

103:                                              ; preds = %82
  %104 = load ptr, ptr %4, align 8, !tbaa !18
  %105 = getelementptr inbounds nuw %struct.Codebook, ptr %104, i32 0, i32 15
  %106 = load i32, ptr %105, align 8, !tbaa !48
  br label %111

107:                                              ; preds = %82
  %108 = load ptr, ptr %4, align 8, !tbaa !18
  %109 = getelementptr inbounds nuw %struct.Codebook, ptr %108, i32 0, i32 1
  %110 = load i32, ptr %109, align 4, !tbaa !49
  br label %111

111:                                              ; preds = %107, %103
  %112 = phi i32 [ %106, %103 ], [ %110, %107 ]
  store i32 %112, ptr %8, align 4, !tbaa !8
  store i32 0, ptr %7, align 4, !tbaa !8
  br label %113

113:                                              ; preds = %222, %111
  %114 = load i32, ptr %7, align 4, !tbaa !8
  %115 = load i32, ptr %8, align 4, !tbaa !8
  %116 = icmp slt i32 %114, %115
  br i1 %116, label %117, label %225

117:                                              ; preds = %113
  call void @llvm.lifetime.start.p0(i64 4, ptr %10) #11
  %118 = load ptr, ptr %4, align 8, !tbaa !18
  %119 = getelementptr inbounds nuw %struct.Codebook, ptr %118, i32 0, i32 8
  %120 = load i8, ptr %119, align 1, !tbaa !35
  %121 = zext i8 %120 to i32
  %122 = icmp ne i32 %121, 0
  br i1 %122, label %123, label %134

123:                                              ; preds = %117
  %124 = load ptr, ptr %5, align 8, !tbaa !19
  %125 = load ptr, ptr %6, align 8, !tbaa !33
  %126 = load i32, ptr %7, align 4, !tbaa !8
  %127 = sext i32 %126 to i64
  %128 = getelementptr inbounds i32, ptr %125, i64 %127
  %129 = load i32, ptr %128, align 4, !tbaa !8
  %130 = zext i32 %129 to i64
  %131 = getelementptr inbounds nuw i8, ptr %124, i64 %130
  %132 = load i8, ptr %131, align 1, !tbaa !30
  %133 = zext i8 %132 to i32
  br label %141

134:                                              ; preds = %117
  %135 = load ptr, ptr %5, align 8, !tbaa !19
  %136 = load i32, ptr %7, align 4, !tbaa !8
  %137 = sext i32 %136 to i64
  %138 = getelementptr inbounds i8, ptr %135, i64 %137
  %139 = load i8, ptr %138, align 1, !tbaa !30
  %140 = zext i8 %139 to i32
  br label %141

141:                                              ; preds = %134, %123
  %142 = phi i32 [ %133, %123 ], [ %140, %134 ]
  store i32 %142, ptr %10, align 4, !tbaa !8
  %143 = load ptr, ptr %4, align 8, !tbaa !18
  %144 = load i32, ptr %10, align 4, !tbaa !8
  %145 = trunc i32 %144 to i8
  %146 = call i32 @include_in_sort(ptr noundef %143, i8 noundef zeroext %145)
  %147 = icmp ne i32 %146, 0
  br i1 %147, label %148, label %221

148:                                              ; preds = %141
  call void @llvm.lifetime.start.p0(i64 4, ptr %11) #11
  %149 = load ptr, ptr %4, align 8, !tbaa !18
  %150 = getelementptr inbounds nuw %struct.Codebook, ptr %149, i32 0, i32 11
  %151 = load ptr, ptr %150, align 8, !tbaa !38
  %152 = load i32, ptr %7, align 4, !tbaa !8
  %153 = sext i32 %152 to i64
  %154 = getelementptr inbounds i32, ptr %151, i64 %153
  %155 = load i32, ptr %154, align 4, !tbaa !8
  %156 = call i32 @bit_reverse(i32 noundef %155)
  store i32 %156, ptr %11, align 4, !tbaa !8
  call void @llvm.lifetime.start.p0(i64 4, ptr %12) #11
  store i32 0, ptr %12, align 4, !tbaa !8
  call void @llvm.lifetime.start.p0(i64 4, ptr %13) #11
  %157 = load ptr, ptr %4, align 8, !tbaa !18
  %158 = getelementptr inbounds nuw %struct.Codebook, ptr %157, i32 0, i32 15
  %159 = load i32, ptr %158, align 8, !tbaa !48
  store i32 %159, ptr %13, align 4, !tbaa !8
  br label %160

160:                                              ; preds = %186, %148
  %161 = load i32, ptr %13, align 4, !tbaa !8
  %162 = icmp sgt i32 %161, 1
  br i1 %162, label %163, label %187

163:                                              ; preds = %160
  call void @llvm.lifetime.start.p0(i64 4, ptr %14) #11
  %164 = load i32, ptr %12, align 4, !tbaa !8
  %165 = load i32, ptr %13, align 4, !tbaa !8
  %166 = ashr i32 %165, 1
  %167 = add nsw i32 %164, %166
  store i32 %167, ptr %14, align 4, !tbaa !8
  %168 = load ptr, ptr %4, align 8, !tbaa !18
  %169 = getelementptr inbounds nuw %struct.Codebook, ptr %168, i32 0, i32 13
  %170 = load ptr, ptr %169, align 8, !tbaa !50
  %171 = load i32, ptr %14, align 4, !tbaa !8
  %172 = sext i32 %171 to i64
  %173 = getelementptr inbounds i32, ptr %170, i64 %172
  %174 = load i32, ptr %173, align 4, !tbaa !8
  %175 = load i32, ptr %11, align 4, !tbaa !8
  %176 = icmp ule i32 %174, %175
  br i1 %176, label %177, label %183

177:                                              ; preds = %163
  %178 = load i32, ptr %14, align 4, !tbaa !8
  store i32 %178, ptr %12, align 4, !tbaa !8
  %179 = load i32, ptr %13, align 4, !tbaa !8
  %180 = ashr i32 %179, 1
  %181 = load i32, ptr %13, align 4, !tbaa !8
  %182 = sub nsw i32 %181, %180
  store i32 %182, ptr %13, align 4, !tbaa !8
  br label %186

183:                                              ; preds = %163
  %184 = load i32, ptr %13, align 4, !tbaa !8
  %185 = ashr i32 %184, 1
  store i32 %185, ptr %13, align 4, !tbaa !8
  br label %186

186:                                              ; preds = %183, %177
  call void @llvm.lifetime.end.p0(i64 4, ptr %14) #11
  br label %160, !llvm.loop !55

187:                                              ; preds = %160
  %188 = load ptr, ptr %4, align 8, !tbaa !18
  %189 = getelementptr inbounds nuw %struct.Codebook, ptr %188, i32 0, i32 8
  %190 = load i8, ptr %189, align 1, !tbaa !35
  %191 = icmp ne i8 %190, 0
  br i1 %191, label %192, label %212

192:                                              ; preds = %187
  %193 = load ptr, ptr %6, align 8, !tbaa !33
  %194 = load i32, ptr %7, align 4, !tbaa !8
  %195 = sext i32 %194 to i64
  %196 = getelementptr inbounds i32, ptr %193, i64 %195
  %197 = load i32, ptr %196, align 4, !tbaa !8
  %198 = load ptr, ptr %4, align 8, !tbaa !18
  %199 = getelementptr inbounds nuw %struct.Codebook, ptr %198, i32 0, i32 14
  %200 = load ptr, ptr %199, align 8, !tbaa !56
  %201 = load i32, ptr %12, align 4, !tbaa !8
  %202 = sext i32 %201 to i64
  %203 = getelementptr inbounds i32, ptr %200, i64 %202
  store i32 %197, ptr %203, align 4, !tbaa !8
  %204 = load i32, ptr %10, align 4, !tbaa !8
  %205 = trunc i32 %204 to i8
  %206 = load ptr, ptr %4, align 8, !tbaa !18
  %207 = getelementptr inbounds nuw %struct.Codebook, ptr %206, i32 0, i32 2
  %208 = load ptr, ptr %207, align 8, !tbaa !39
  %209 = load i32, ptr %12, align 4, !tbaa !8
  %210 = sext i32 %209 to i64
  %211 = getelementptr inbounds i8, ptr %208, i64 %210
  store i8 %205, ptr %211, align 1, !tbaa !30
  br label %220

212:                                              ; preds = %187
  %213 = load i32, ptr %7, align 4, !tbaa !8
  %214 = load ptr, ptr %4, align 8, !tbaa !18
  %215 = getelementptr inbounds nuw %struct.Codebook, ptr %214, i32 0, i32 14
  %216 = load ptr, ptr %215, align 8, !tbaa !56
  %217 = load i32, ptr %12, align 4, !tbaa !8
  %218 = sext i32 %217 to i64
  %219 = getelementptr inbounds i32, ptr %216, i64 %218
  store i32 %213, ptr %219, align 4, !tbaa !8
  br label %220

220:                                              ; preds = %212, %192
  call void @llvm.lifetime.end.p0(i64 4, ptr %13) #11
  call void @llvm.lifetime.end.p0(i64 4, ptr %12) #11
  call void @llvm.lifetime.end.p0(i64 4, ptr %11) #11
  br label %221

221:                                              ; preds = %220, %141
  call void @llvm.lifetime.end.p0(i64 4, ptr %10) #11
  br label %222

222:                                              ; preds = %221
  %223 = load i32, ptr %7, align 4, !tbaa !8
  %224 = add nsw i32 %223, 1
  store i32 %224, ptr %7, align 4, !tbaa !8
  br label %113, !llvm.loop !57

225:                                              ; preds = %113
  call void @llvm.lifetime.end.p0(i64 4, ptr %8) #11
  call void @llvm.lifetime.end.p0(i64 4, ptr %7) #11
  ret void
}